EXPORTS 
	??_R0?AV?$_Iosb@H@std@@@8 	 DATA
	??_R0?AV?$basic_filebuf@DU?$char_traits@D@std@@@std@@@8 	 DATA
	??_R0?AV?$basic_ifstream@DU?$char_traits@D@std@@@std@@@8 	 DATA
	??_R0?AV?$basic_ios@DU?$char_traits@D@std@@@std@@@8 	 DATA
	??_R0?AV?$basic_iostream@DU?$char_traits@D@std@@@std@@@8 	 DATA
	??_R0?AV?$basic_istream@DU?$char_traits@D@std@@@std@@@8 	 DATA
	??_R0?AV?$basic_ostream@DU?$char_traits@D@std@@@std@@@8 	 DATA
	??_R0?AV?$basic_streambuf@DU?$char_traits@D@std@@@std@@@8 	 DATA
	??_R0?AV?$basic_stringbuf@DU?$char_traits@D@std@@V?$allocator@D@2@@std@@@8 	 DATA
	??_R0?AV?$basic_stringstream@DU?$char_traits@D@std@@V?$allocator@D@2@@std@@@8 	 DATA
	??_R0?AVbad_alloc@std@@@8 	 DATA
	??_R0?AVbad_array_new_length@std@@@8 	 DATA
	??_R0?AVbad_cast@std@@@8 	 DATA
	??_R0?AVexception@std@@@8 	 DATA
	??_R0?AVios_base@std@@@8 	 DATA
	?_Psave@?$_Facetptr@V?$codecvt@DDU_Mbstatet@@@std@@@std@@2PEBVfacet@locale@2@EB 	 DATA
	?_Psave@?$_Facetptr@V?$ctype@D@std@@@std@@2PEBVfacet@locale@2@EB 	 DATA
	?_Stinit@?1??_Init@?$basic_filebuf@DU?$char_traits@D@std@@@std@@IEAAXPEAU_iobuf@@W4_Initfl@23@@Z@4U_Mbstatet@@A 	 DATA
	??$?0$$V@?$_Compressed_pair@V?$allocator@D@std@@V?$_String_val@U?$_Simple_types@D@std@@@2@$00@std@@QEAA@U_Zero_then_variadic_args_t@1@@Z
	??$?0$$V@?$_Compressed_pair@V?$allocator@V?$basic_string@DU?$char_traits@D@std@@V?$allocator@D@2@@std@@@std@@V?$_Vector_val@U?$_Simple_types@V?$basic_string@DU?$char_traits@D@std@@V?$allocator@D@2@@std@@@std@@@2@$00@std@@QEAA@U_Zero_then_variadic_args_t@1@@Z
	??$?0$$V@?$_Compressed_pair@V?$allocator@V?$vector@MV?$allocator@M@std@@@std@@@std@@V?$_Vector_val@U?$_Simple_types@V?$vector@MV?$allocator@M@std@@@std@@@std@@@2@$00@std@@QEAA@U_Zero_then_variadic_args_t@1@@Z
	??$?0A6AXHAEAV?$vector@UStudent@@V?$allocator@UStudent@@@std@@@std@@@Z@?$_Tuple_val@P6AXHAEAV?$vector@UStudent@@V?$allocator@UStudent@@@std@@@std@@@Z@std@@QEAA@A6AXHAEAV?$vector@UStudent@@V?$allocator@UStudent@@@std@@@1@@Z@Z
	??$?0A6AXHAEAV?$vector@UStudent@@V?$allocator@UStudent@@@std@@@std@@@ZAEAHAEAV01@$0A@@?$tuple@P6AXHAEAV?$vector@UStudent@@V?$allocator@UStudent@@@std@@@std@@@ZHV12@@std@@QEAA@A6AXHAEAV?$vector@UStudent@@V?$allocator@UStudent@@@std@@@1@@ZAEAH0@Z
	??$?0A6AXHAEAV?$vector@UStudent@@V?$allocator@UStudent@@@std@@@std@@@ZAEAHAEAV01@$0A@@thread@std@@QEAA@A6AXHAEAV?$vector@UStudent@@V?$allocator@UStudent@@@std@@@1@@ZAEAH0@Z
	??$?0AEAH@?$_Tuple_val@H@std@@QEAA@AEAH@Z
	??$?0AEAPEAUStudent@@AEAPEAU0@$0A@@?$pair@PEAUStudent@@PEAU1@@std@@QEAA@AEAPEAUStudent@@0@Z
	??$?0AEAPEAV?$tuple@P6AXHAEAV?$vector@UStudent@@V?$allocator@UStudent@@@std@@@std@@@ZHV12@@std@@@?$_Compressed_pair@U?$default_delete@V?$tuple@P6AXHAEAV?$vector@UStudent@@V?$allocator@UStudent@@@std@@@std@@@ZHV12@@std@@@std@@PEAV?$tuple@P6AXHAEAV?$vector@UStudent@@V?$allocator@UStudent@@@std@@@std@@@ZHV12@@2@$00@std@@QEAA@U_Zero_then_variadic_args_t@1@AEAPEAV?$tuple@P6AXHAEAV?$vector@UStudent@@V?$allocator@UStudent@@@std@@@std@@@ZHV12@@1@@Z
	??$?0AEAPEAV_Facet_base@std@@@?$_Compressed_pair@U?$default_delete@V_Facet_base@std@@@std@@PEAV_Facet_base@2@$00@std@@QEAA@U_Zero_then_variadic_args_t@1@AEAPEAV_Facet_base@1@@Z
	??$?0AEAV?$vector@UStudent@@V?$allocator@UStudent@@@std@@@std@@@?$_Tuple_val@V?$vector@UStudent@@V?$allocator@UStudent@@@std@@@std@@@std@@QEAA@AEAV?$vector@UStudent@@V?$allocator@UStudent@@@std@@@1@@Z
	??$?0AEBV?$allocator@H@std@@$$V@?$_Compressed_pair@V?$allocator@H@std@@V?$_Vector_val@U?$_Simple_types@H@std@@@2@$00@std@@QEAA@U_One_then_variadic_args_t@1@AEBV?$allocator@H@1@@Z
	??$?0D@?$allocator@U_Container_proxy@std@@@std@@QEAA@AEBV?$allocator@D@1@@Z
	??$?0H$0A@@?$duration@_JU?$ratio@$00$00@std@@@chrono@std@@QEAA@AEBH@Z
	??$?0H@?$allocator@U_Container_proxy@std@@@std@@QEAA@AEBV?$allocator@H@1@@Z
	??$?0M@?$allocator@U_Container_proxy@std@@@std@@QEAA@AEBV?$allocator@M@1@@Z
	??$?0N$0A@@?$duration@NU?$ratio@$00$0DLJKMKAA@@std@@@chrono@std@@QEAA@AEBN@Z
	??$?0NU?$ratio@$00$00@std@@$0A@@?$duration@NU?$ratio@$00$0DLJKMKAA@@std@@@chrono@std@@QEAA@AEBV?$duration@NU?$ratio@$00$00@std@@@12@@Z
	??$?0U?$default_delete@V?$tuple@P6AXHAEAV?$vector@UStudent@@V?$allocator@UStudent@@@std@@@std@@@ZHV12@@std@@@std@@$0A@@?$unique_ptr@V?$tuple@P6AXHAEAV?$vector@UStudent@@V?$allocator@UStudent@@@std@@@std@@@ZHV12@@std@@U?$default_delete@V?$tuple@P6AXHAEAV?$vector@UStudent@@V?$allocator@UStudent@@@std@@@std@@@ZHV12@@std@@@2@@std@@QEAA@$$QEAV01@@Z
	??$?0U?$default_delete@V?$tuple@P6AXHAEAV?$vector@UStudent@@V?$allocator@UStudent@@@std@@@std@@@ZHV12@@std@@@std@@$0A@@?$unique_ptr@V?$tuple@P6AXHAEAV?$vector@UStudent@@V?$allocator@UStudent@@@std@@@std@@@ZHV12@@std@@U?$default_delete@V?$tuple@P6AXHAEAV?$vector@UStudent@@V?$allocator@UStudent@@@std@@@std@@@ZHV12@@std@@@2@@std@@QEAA@PEAV?$tuple@P6AXHAEAV?$vector@UStudent@@V?$allocator@UStudent@@@std@@@std@@@ZHV12@@1@@Z
	??$?0U?$default_delete@V?$tuple@P6AXHAEAV?$vector@UStudent@@V?$allocator@UStudent@@@std@@@std@@@ZHV12@@std@@@std@@PEAV?$tuple@P6AXHAEAV?$vector@UStudent@@V?$allocator@UStudent@@@std@@@std@@@ZHV12@@1@@?$_Compressed_pair@U?$default_delete@V?$tuple@P6AXHAEAV?$vector@UStudent@@V?$allocator@UStudent@@@std@@@std@@@ZHV12@@std@@@std@@PEAV?$tuple@P6AXHAEAV?$vector@UStudent@@V?$allocator@UStudent@@@std@@@std@@@ZHV12@@2@$00@std@@QEAA@U_One_then_variadic_args_t@1@$$QEAU?$default_delete@V?$tuple@P6AXHAEAV?$vector@UStudent@@V?$allocator@UStudent@@@std@@@std@@@ZHV12@@std@@@1@$$QEAPEAV?$tuple@P6AXHAEAV?$vector@UStudent@@V?$allocator@UStudent@@@std@@@std@@@ZHV12@@1@@Z
	??$?0U?$default_delete@V_Facet_base@std@@@std@@$0A@@?$unique_ptr@V_Facet_base@std@@U?$default_delete@V_Facet_base@std@@@2@@std@@QEAA@PEAV_Facet_base@1@@Z
	??$?0UStudent@@@?$allocator@U_Container_proxy@std@@@std@@QEAA@AEBV?$allocator@UStudent@@@1@@Z
	??$?0U_Exact_args_t@std@@$0A@@?$tuple@$$V@std@@QEAA@U_Exact_args_t@1@@Z
	??$?0U_Exact_args_t@std@@A6AXHAEAV?$vector@UStudent@@V?$allocator@UStudent@@@std@@@1@@ZAEAHAEAV21@$0A@@?$tuple@P6AXHAEAV?$vector@UStudent@@V?$allocator@UStudent@@@std@@@std@@@ZHV12@@std@@QEAA@U_Exact_args_t@1@A6AXHAEAV?$vector@UStudent@@V?$allocator@UStudent@@@std@@@1@@ZAEAH1@Z
	??$?0U_Exact_args_t@std@@AEAHAEAV?$vector@UStudent@@V?$allocator@UStudent@@@std@@@1@$0A@@?$tuple@HV?$vector@UStudent@@V?$allocator@UStudent@@@std@@@std@@@std@@QEAA@U_Exact_args_t@1@AEAHAEAV?$vector@UStudent@@V?$allocator@UStudent@@@std@@@1@@Z
	??$?0U_Exact_args_t@std@@AEAV?$vector@UStudent@@V?$allocator@UStudent@@@std@@@1@$$V$0A@@?$tuple@V?$vector@UStudent@@V?$allocator@UStudent@@@std@@@std@@@std@@QEAA@U_Exact_args_t@1@AEAV?$vector@UStudent@@V?$allocator@UStudent@@@std@@@1@@Z
	??$?0V?$allocator@D@std@@$$V@?$_Compressed_pair@V?$allocator@D@std@@V?$_String_val@U?$_Simple_types@D@std@@@2@$00@std@@QEAA@U_One_then_variadic_args_t@1@$$QEAV?$allocator@D@1@@Z
	??$?0V?$allocator@H@std@@$$V@?$_Compressed_pair@V?$allocator@H@std@@V?$_Vector_val@U?$_Simple_types@H@std@@@2@$00@std@@QEAA@U_One_then_variadic_args_t@1@$$QEAV?$allocator@H@1@@Z
	??$?0V?$allocator@H@std@@PEAHPEAHPEAH@?$_Compressed_pair@V?$allocator@H@std@@V?$_Vector_val@U?$_Simple_types@H@std@@@2@$00@std@@QEAA@U_One_then_variadic_args_t@1@$$QEAV?$allocator@H@1@$$QEAPEAH22@Z
	??$?0V?$allocator@UStudent@@@std@@$$V@?$_Compressed_pair@V?$allocator@UStudent@@@std@@V?$_Vector_val@U?$_Simple_types@UStudent@@@std@@@2@$00@std@@QEAA@U_One_then_variadic_args_t@1@$$QEAV?$allocator@UStudent@@@1@@Z
	??$?0V?$basic_string@DU?$char_traits@D@std@@V?$allocator@D@2@@std@@@?$allocator@U_Container_proxy@std@@@std@@QEAA@AEBV?$allocator@V?$basic_string@DU?$char_traits@D@std@@V?$allocator@D@2@@std@@@1@@Z
	??$?0V?$vector@MV?$allocator@M@std@@@std@@@?$allocator@U_Container_proxy@std@@@std@@QEAA@AEBV?$allocator@V?$vector@MV?$allocator@M@std@@@std@@@1@@Z
	??$?0_J$0A@@?$duration@_JU?$ratio@$00$00@std@@@chrono@std@@QEAA@AEB_J@Z
	??$?0_J$0A@@?$duration@_JU?$ratio@$00$0DLJKMKAA@@std@@@chrono@std@@QEAA@AEB_J@Z
	??$?0_J$0A@@?$duration@_JU?$ratio@$00$0JIJGIA@@std@@@chrono@std@@QEAA@AEB_J@Z
	??$?0_JU?$ratio@$00$00@std@@$0A@@?$duration@_JU?$ratio@$00$0DLJKMKAA@@std@@@chrono@std@@QEAA@AEBV?$duration@_JU?$ratio@$00$00@std@@@12@@Z
	??$?0_JU?$ratio@$00$0DLJKMKAA@@std@@$0A@@?$duration@NU?$ratio@$00$0DLJKMKAA@@std@@@chrono@std@@QEAA@AEBV?$duration@_JU?$ratio@$00$0DLJKMKAA@@std@@@12@@Z
	??$?0_JU?$ratio@$00$0JIJGIA@@std@@$0A@@?$duration@_JU?$ratio@$00$0DLJKMKAA@@std@@@chrono@std@@QEAA@AEBV?$duration@_JU?$ratio@$00$0JIJGIA@@std@@@12@@Z
	??$?5DU?$char_traits@D@std@@V?$allocator@D@1@@std@@YAAEAV?$basic_istream@DU?$char_traits@D@std@@@0@$$QEAV10@AEAV?$basic_string@DU?$char_traits@D@std@@V?$allocator@D@2@@0@@Z
	??$?5DU?$char_traits@D@std@@V?$allocator@D@1@@std@@YAAEAV?$basic_istream@DU?$char_traits@D@std@@@0@AEAV10@AEAV?$basic_string@DU?$char_traits@D@std@@V?$allocator@D@2@@0@@Z
	??$?6U?$char_traits@D@std@@@std@@YAAEAV?$basic_ostream@DU?$char_traits@D@std@@@0@AEAV10@PEBD@Z
	??$?GUsteady_clock@chrono@std@@V?$duration@_JU?$ratio@$00$0DLJKMKAA@@std@@@12@V312@@chrono@std@@YA?AV?$duration@_JU?$ratio@$00$0DLJKMKAA@@std@@@01@AEBV?$time_point@Usteady_clock@chrono@std@@V?$duration@_JU?$ratio@$00$0DLJKMKAA@@std@@@23@@01@0@Z
	??$?GUsteady_clock@chrono@std@@V?$duration@_JU?$ratio@$00$0DLJKMKAA@@std@@@12@_JU?$ratio@$00$00@2@@chrono@std@@YA?AV?$time_point@Usteady_clock@chrono@std@@V?$duration@_JU?$ratio@$00$0DLJKMKAA@@std@@@23@@01@AEBV201@AEBV?$duration@_JU?$ratio@$00$00@std@@@01@@Z
	??$?G_JU?$ratio@$00$0DLJKMKAA@@std@@_JU01@@chrono@std@@YA?AV?$duration@_JU?$ratio@$00$0DLJKMKAA@@std@@@01@AEBV201@0@Z
	??$?G_JU?$ratio@$00$0DLJKMKAA@@std@@_JU?$ratio@$00$00@1@@chrono@std@@YA?AV?$duration@_JU?$ratio@$00$0DLJKMKAA@@std@@@01@AEBV201@AEBV?$duration@_JU?$ratio@$00$00@std@@@01@@Z
	??$?MNU?$ratio@$00$00@std@@_JU?$ratio@$00$0DLJKMKAA@@1@@chrono@std@@YA_NAEBV?$duration@NU?$ratio@$00$00@std@@@01@AEBV?$duration@_JU?$ratio@$00$0DLJKMKAA@@std@@@01@@Z
	??$?MUsteady_clock@chrono@std@@V?$duration@_JU?$ratio@$00$0DLJKMKAA@@std@@@12@V312@@chrono@std@@YA_NAEBV?$time_point@Usteady_clock@chrono@std@@V?$duration@_JU?$ratio@$00$0DLJKMKAA@@std@@@23@@01@0@Z
	??$?M_JU?$ratio@$00$00@std@@_JU01@@chrono@std@@YA_NAEBV?$duration@_JU?$ratio@$00$00@std@@@01@0@Z
	??$?M_JU?$ratio@$00$0DLJKMKAA@@std@@_JU01@@chrono@std@@YA_NAEBV?$duration@_JU?$ratio@$00$0DLJKMKAA@@std@@@01@0@Z
	??$?NUsteady_clock@chrono@std@@V?$duration@_JU?$ratio@$00$0DLJKMKAA@@std@@@12@V312@@chrono@std@@YA_NAEBV?$time_point@Usteady_clock@chrono@std@@V?$duration@_JU?$ratio@$00$0DLJKMKAA@@std@@@23@@01@0@Z
	??$?O_JU?$ratio@$00$00@std@@_JU01@@chrono@std@@YA_NAEBV?$duration@_JU?$ratio@$00$00@std@@@01@0@Z
	??$_Adl_verify_range@V?$_Vector_iterator@V?$_Vector_val@U?$_Simple_types@UStudent@@@std@@@std@@@std@@V12@@std@@YAXAEBV?$_Vector_iterator@V?$_Vector_val@U?$_Simple_types@UStudent@@@std@@@std@@@0@0@Z
	??$_Alloc_proxy@V?$allocator@U_Container_proxy@std@@@std@@@_Container_base12@std@@QEAAX$$QEAV?$allocator@U_Container_proxy@std@@@1@@Z
	??$_Allocate@$0BA@U_Default_allocate_traits@std@@$0A@@std@@YAPEAX_K@Z
	??$_Allocate_manually_vector_aligned@U_Default_allocate_traits@std@@@std@@YAPEAX_K@Z
	??$_Construct_in_place@PEADAEAPEAD@std@@YAXAEAPEAD0@Z
	??$_Construct_in_place@PEADAEBQEAD@std@@YAXAEAPEADAEBQEAD@Z
	??$_Construct_in_place@U_Container_proxy@std@@PEAU_Container_base12@2@@std@@YAXAEAU_Container_proxy@0@$$QEAPEAU_Container_base12@0@@Z
	??$_Convert_size@_K@std@@YA_K_K@Z
	??$_Copy_memmove@PEAHPEAH@std@@YAPEAHPEAH00@Z
	??$_Copy_memmove@PEBHPEAH@std@@YAPEAHPEBH0PEAH@Z
	??$_Deallocate@$0BA@$0A@@std@@YAXPEAX_K@Z
	??$_Deallocate_plain@V?$allocator@U_Container_proxy@std@@@std@@@std@@YAXAEAV?$allocator@U_Container_proxy@std@@@0@QEAU_Container_proxy@0@@Z
	??$_Delete_plain_internal@V?$allocator@U_Container_proxy@std@@@std@@@std@@YAXAEAV?$allocator@U_Container_proxy@std@@@0@QEAU_Container_proxy@0@@Z
	??$_Destroy_in_place@PEAD@std@@YAXAEAPEAD@Z
	??$_Destroy_range@V?$allocator@H@std@@@std@@YAXPEAHQEAHAEAV?$allocator@H@0@@Z
	??$_Destroy_range@V?$allocator@M@std@@@std@@YAXPEAMQEAMAEAV?$allocator@M@0@@Z
	??$_Destroy_range@V?$allocator@UStudent@@@std@@@std@@YAXPEAUStudent@@QEAU1@AEAV?$allocator@UStudent@@@0@@Z
	??$_Destroy_range@V?$allocator@V?$basic_string@DU?$char_traits@D@std@@V?$allocator@D@2@@std@@@std@@@std@@YAXPEAV?$basic_string@DU?$char_traits@D@std@@V?$allocator@D@2@@0@QEAV10@AEAV?$allocator@V?$basic_string@DU?$char_traits@D@std@@V?$allocator@D@2@@std@@@0@@Z
	??$_Destroy_range@V?$allocator@V?$vector@MV?$allocator@M@std@@@std@@@std@@@std@@YAXPEAV?$vector@MV?$allocator@M@std@@@0@QEAV10@AEAV?$allocator@V?$vector@MV?$allocator@M@std@@@std@@@0@@Z
	??$_Emplace_back@AEAH@?$_Uninitialized_backout_al@V?$allocator@H@std@@@std@@QEAAXAEAH@Z
	??$_Emplace_back@AEAUStudent@@@?$_Uninitialized_backout_al@V?$allocator@UStudent@@@std@@@std@@QEAAXAEAUStudent@@@Z
	??$_Emplace_back@AEBH@?$_Uninitialized_backout_al@V?$allocator@H@std@@@std@@QEAAXAEBH@Z
	??$_Emplace_back@UStudent@@@?$_Uninitialized_backout_al@V?$allocator@UStudent@@@std@@@std@@QEAAX$$QEAUStudent@@@Z
	??$_Emplace_back_with_unused_capacity@AEBUStudent@@@?$vector@UStudent@@V?$allocator@UStudent@@@std@@@std@@AEAA?A_TAEBUStudent@@@Z
	??$_Emplace_reallocate@AEBUStudent@@@?$vector@UStudent@@V?$allocator@UStudent@@@std@@@std@@QEAAPEAUStudent@@QEAU2@AEBU2@@Z
	??$_Fgetc@D@std@@YA_NAEADPEAU_iobuf@@@Z
	??$_Fputc@D@std@@YA_NDPEAU_iobuf@@@Z
	??$_Get_size_of_n@$00@std@@YA_K_K@Z
	??$_Get_size_of_n@$03@std@@YA_K_K@Z
	??$_Get_size_of_n@$0BA@@std@@YA_K_K@Z
	??$_Get_size_of_n@$0EI@@std@@YA_K_K@Z
	??$_Get_unwrapped@AEBQEAH@std@@YA?A_TAEBQEAH@Z
	??$_Get_unwrapped@AEBQEAUStudent@@@std@@YA?A_TAEBQEAUStudent@@@Z
	??$_Get_unwrapped@AEBQEBH@std@@YA?A_TAEBQEBH@Z
	??$_Get_unwrapped@AEBV?$_Vector_iterator@V?$_Vector_val@U?$_Simple_types@UStudent@@@std@@@std@@@std@@@std@@YA?A_TAEBV?$_Vector_iterator@V?$_Vector_val@U?$_Simple_types@UStudent@@@std@@@std@@@0@@Z
	??$_Invoke@V?$tuple@P6AXHAEAV?$vector@UStudent@@V?$allocator@UStudent@@@std@@@std@@@ZHV12@@std@@$0A@$00$01@thread@std@@CAIPEAX@Z
	??$_Move_backward_unchecked@PEAUStudent@@PEAU1@@std@@YAPEAUStudent@@PEAU1@00@Z
	??$_Next_iter@PEAUStudent@@@std@@YAPEAUStudent@@PEAU1@@Z
	??$_Pocca@V?$allocator@D@std@@@std@@YAXAEAV?$allocator@D@0@AEBV10@@Z
	??$_Pocma@V?$allocator@D@std@@@std@@YAXAEAV?$allocator@D@0@0@Z
	??$_Pocma@V?$allocator@H@std@@@std@@YAXAEAV?$allocator@H@0@0@Z
	??$_Prev_iter@PEAUStudent@@@std@@YAPEAUStudent@@PEAU1@@Z
	??$_Range_construct_or_tidy@PEBH@?$vector@HV?$allocator@H@std@@@std@@AEAAXPEBH0Uforward_iterator_tag@1@@Z
	??$_Reallocate_for@V<lambda_66f57f934f28d61049862f64df852ff0>@@PEBD@?$basic_string@DU?$char_traits@D@std@@V?$allocator@D@2@@std@@AEAAAEAV01@_KV<lambda_66f57f934f28d61049862f64df852ff0>@@PEBD@Z
	??$_Reallocate_grow_by@V<lambda_319d5e083f45f90dcdce5dce53cbb275>@@D@?$basic_string@DU?$char_traits@D@std@@V?$allocator@D@2@@std@@AEAAAEAV01@_KV<lambda_319d5e083f45f90dcdce5dce53cbb275>@@D@Z
	??$_Start@A6AXHAEAV?$vector@UStudent@@V?$allocator@UStudent@@@std@@@std@@@ZAEAHAEAV12@@thread@std@@AEAAXA6AXHAEAV?$vector@UStudent@@V?$allocator@UStudent@@@std@@@1@@ZAEAH0@Z
	??$_To_absolute_time@_JU?$ratio@$00$00@std@@@std@@YA?A_PAEBV?$duration@_JU?$ratio@$00$00@std@@@chrono@0@@Z
	??$_To_address@PEAH@std@@YA?A_PAEBQEAH@Z
	??$_To_address@PEBH@std@@YA?A_PAEBQEBH@Z
	??$_To_xtime_10_day_clamped@_JU?$ratio@$00$0DLJKMKAA@@std@@@std@@YA_NAEAUxtime@@AEBV?$duration@_JU?$ratio@$00$0DLJKMKAA@@std@@@chrono@0@@Z
	??$_Ucopy@PEAH@?$vector@HV?$allocator@H@std@@@std@@AEAAPEAHPEAH00@Z
	??$_Ucopy@PEAUStudent@@@?$vector@UStudent@@V?$allocator@UStudent@@@std@@@std@@AEAAPEAUStudent@@PEAU2@00@Z
	??$_Ucopy@PEBH@?$vector@HV?$allocator@H@std@@@std@@AEAAPEAHPEBH0PEAH@Z
	??$_Unfancy@D@std@@YAPEADPEAD@Z
	??$_Unfancy@H@std@@YAPEAHPEAH@Z
	??$_Unfancy@UStudent@@@std@@YAPEAUStudent@@PEAU1@@Z
	??$_Unfancy@U_Container_proxy@std@@@std@@YAPEAU_Container_proxy@0@PEAU10@@Z
	??$_Unfancy@V?$basic_string@DU?$char_traits@D@std@@V?$allocator@D@2@@std@@@std@@YAPEAV?$basic_string@DU?$char_traits@D@std@@V?$allocator@D@2@@0@PEAV10@@Z
	??$_Unfancy@V?$vector@MV?$allocator@M@std@@@std@@@std@@YAPEAV?$vector@MV?$allocator@M@std@@@0@PEAV10@@Z
	??$_Ungetc@D@std@@YA_NAEBDPEAU_iobuf@@@Z
	??$_Uninitialized_copy@PEAHV?$allocator@H@std@@@std@@YAPEAHQEAH0PEAHAEAV?$allocator@H@0@@Z
	??$_Uninitialized_copy@PEAUStudent@@V?$allocator@UStudent@@@std@@@std@@YAPEAUStudent@@QEAU1@0PEAU1@AEAV?$allocator@UStudent@@@0@@Z
	??$_Uninitialized_copy@PEBHV?$allocator@H@std@@@std@@YAPEAHQEBH0PEAHAEAV?$allocator@H@0@@Z
	??$_Uninitialized_move@PEAUStudent@@V?$allocator@UStudent@@@std@@@std@@YAPEAUStudent@@QEAU1@0PEAU1@AEAV?$allocator@UStudent@@@0@@Z
	??$_Voidify_iter@PEAH@std@@YAPEAXPEAH@Z
	??$_Voidify_iter@PEAPEAD@std@@YAPEAXPEAPEAD@Z
	??$_Voidify_iter@PEAUStudent@@@std@@YAPEAXPEAUStudent@@@Z
	??$_Voidify_iter@PEAU_Container_proxy@std@@@std@@YAPEAXPEAU_Container_proxy@0@@Z
	??$addressof@$$CBV?$_String_val@U?$_Simple_types@D@std@@@std@@@std@@YAPEBV?$_String_val@U?$_Simple_types@D@std@@@0@AEBV10@@Z
	??$addressof@$$CBV?$basic_string@DU?$char_traits@D@std@@V?$allocator@D@2@@std@@@std@@YAPEBV?$basic_string@DU?$char_traits@D@std@@V?$allocator@D@2@@0@AEBV10@@Z
	??$addressof@$$CBV?$codecvt@DDU_Mbstatet@@@std@@@std@@YAPEBV?$codecvt@DDU_Mbstatet@@@0@AEBV10@@Z
	??$addressof@D@std@@YAPEADAEAD@Z
	??$addressof@PEAD@std@@YAPEAPEADAEAPEAD@Z
	??$addressof@U_Container_base12@std@@@std@@YAPEAU_Container_base12@0@AEAU10@@Z
	??$addressof@U_Container_proxy@std@@@std@@YAPEAU_Container_proxy@0@AEAU10@@Z
	??$addressof@V?$_String_val@U?$_Simple_types@D@std@@@std@@@std@@YAPEAV?$_String_val@U?$_Simple_types@D@std@@@0@AEAV10@@Z
	??$addressof@V?$_Vector_val@U?$_Simple_types@UStudent@@@std@@@std@@@std@@YAPEAV?$_Vector_val@U?$_Simple_types@UStudent@@@std@@@0@AEAV10@@Z
	??$addressof@V?$basic_filebuf@DU?$char_traits@D@std@@@std@@@std@@YAPEAV?$basic_filebuf@DU?$char_traits@D@std@@@0@AEAV10@@Z
	??$addressof@V?$basic_string@DU?$char_traits@D@std@@V?$allocator@D@2@@std@@@std@@YAPEAV?$basic_string@DU?$char_traits@D@std@@V?$allocator@D@2@@0@AEAV10@@Z
	??$addressof@V?$basic_stringbuf@DU?$char_traits@D@std@@V?$allocator@D@2@@std@@@std@@YAPEAV?$basic_stringbuf@DU?$char_traits@D@std@@V?$allocator@D@2@@0@AEAV10@@Z
	??$addressof@V?$vector@HV?$allocator@H@std@@@std@@@std@@YAPEAV?$vector@HV?$allocator@H@std@@@0@AEAV10@@Z
	??$construct@HAEAH@?$_Default_allocator_traits@V?$allocator@H@std@@@std@@SAXAEAV?$allocator@H@1@QEAHAEAH@Z
	??$construct@HAEBH@?$_Default_allocator_traits@V?$allocator@H@std@@@std@@SAXAEAV?$allocator@H@1@QEAHAEBH@Z
	??$construct@UStudent@@AEAU1@@?$_Default_allocator_traits@V?$allocator@UStudent@@@std@@@std@@SAXAEAV?$allocator@UStudent@@@1@QEAUStudent@@AEAU3@@Z
	??$construct@UStudent@@AEBU1@@?$_Default_allocator_traits@V?$allocator@UStudent@@@std@@@std@@SAXAEAV?$allocator@UStudent@@@1@QEAUStudent@@AEBU3@@Z
	??$construct@UStudent@@U1@@?$_Default_allocator_traits@V?$allocator@UStudent@@@std@@@std@@SAXAEAV?$allocator@UStudent@@@1@QEAUStudent@@$$QEAU3@@Z
	??$destroy@UStudent@@@?$_Default_allocator_traits@V?$allocator@UStudent@@@std@@@std@@SAXAEAV?$allocator@UStudent@@@1@QEAUStudent@@@Z
	??$destroy@V?$basic_string@DU?$char_traits@D@std@@V?$allocator@D@2@@std@@@?$_Default_allocator_traits@V?$allocator@V?$basic_string@DU?$char_traits@D@std@@V?$allocator@D@2@@std@@@std@@@std@@SAXAEAV?$allocator@V?$basic_string@DU?$char_traits@D@std@@V?$allocator@D@2@@std@@@1@QEAV?$basic_string@DU?$char_traits@D@std@@V?$allocator@D@2@@1@@Z
	??$destroy@V?$vector@MV?$allocator@M@std@@@std@@@?$_Default_allocator_traits@V?$allocator@V?$vector@MV?$allocator@M@std@@@std@@@std@@@std@@SAXAEAV?$allocator@V?$vector@MV?$allocator@M@std@@@std@@@1@QEAV?$vector@MV?$allocator@M@std@@@1@@Z
	??$distance@PEBH@std@@YA_JPEBH0@Z
	??$duration_cast@V?$duration@NU?$ratio@$00$0DLJKMKAA@@std@@@chrono@std@@NU?$ratio@$00$00@3@$0A@@chrono@std@@YA?AV?$duration@NU?$ratio@$00$0DLJKMKAA@@std@@@01@AEBV?$duration@NU?$ratio@$00$00@std@@@01@@Z
	??$duration_cast@V?$duration@NU?$ratio@$00$0DLJKMKAA@@std@@@chrono@std@@_JU?$ratio@$00$0DLJKMKAA@@3@$0A@@chrono@std@@YA?AV?$duration@NU?$ratio@$00$0DLJKMKAA@@std@@@01@AEBV?$duration@_JU?$ratio@$00$0DLJKMKAA@@std@@@01@@Z
	??$duration_cast@V?$duration@_JU?$ratio@$00$00@std@@@chrono@std@@_JU?$ratio@$00$0DLJKMKAA@@3@$0A@@chrono@std@@YA?AV?$duration@_JU?$ratio@$00$00@std@@@01@AEBV?$duration@_JU?$ratio@$00$0DLJKMKAA@@std@@@01@@Z
	??$duration_cast@V?$duration@_JU?$ratio@$00$0DLJKMKAA@@std@@@chrono@std@@_JU?$ratio@$00$00@3@$0A@@chrono@std@@YA?AV?$duration@_JU?$ratio@$00$0DLJKMKAA@@std@@@01@AEBV?$duration@_JU?$ratio@$00$00@std@@@01@@Z
	??$duration_cast@V?$duration@_JU?$ratio@$00$0DLJKMKAA@@std@@@chrono@std@@_JU?$ratio@$00$0DLJKMKAA@@3@$0A@@chrono@std@@YA?AV?$duration@_JU?$ratio@$00$0DLJKMKAA@@std@@@01@AEBV201@@Z
	??$duration_cast@V?$duration@_JU?$ratio@$00$0DLJKMKAA@@std@@@chrono@std@@_JU?$ratio@$00$0JIJGIA@@3@$0A@@chrono@std@@YA?AV?$duration@_JU?$ratio@$00$0DLJKMKAA@@std@@@01@AEBV?$duration@_JU?$ratio@$00$0JIJGIA@@std@@@01@@Z
	??$emplace_back@AEBUStudent@@@?$vector@UStudent@@V?$allocator@UStudent@@@std@@@std@@QEAA?A_TAEBUStudent@@@Z
	??$endl@DU?$char_traits@D@std@@@std@@YAAEAV?$basic_ostream@DU?$char_traits@D@std@@@0@AEAV10@@Z
	??$exchange@PEAH$$T@std@@YAPEAHAEAPEAH$$QEA$$T@Z
	??$exchange@PEAU_Container_proxy@std@@$$T@std@@YAPEAU_Container_proxy@0@AEAPEAU10@$$QEA$$T@Z
	??$exchange@PEAV?$tuple@P6AXHAEAV?$vector@UStudent@@V?$allocator@UStudent@@@std@@@std@@@ZHV12@@std@@$$T@std@@YAPEAV?$tuple@P6AXHAEAV?$vector@UStudent@@V?$allocator@UStudent@@@std@@@std@@@ZHV12@@0@AEAPEAV10@$$QEA$$T@Z
	??$exchange@PEAV_Facet_base@std@@$$T@std@@YAPEAV_Facet_base@0@AEAPEAV10@$$QEA$$T@Z
	??$forward@A6AXHAEAV?$vector@UStudent@@V?$allocator@UStudent@@@std@@@std@@@Z@std@@YAA6AXHAEAV?$vector@UStudent@@V?$allocator@UStudent@@@std@@@0@@ZA6AXH0@Z@Z
	??$forward@AEAH@std@@YAAEAHAEAH@Z
	??$forward@AEAPEAD@std@@YAAEAPEADAEAPEAD@Z
	??$forward@AEAPEAUStudent@@@std@@YAAEAPEAUStudent@@AEAPEAU1@@Z
	??$forward@AEAPEAV?$tuple@P6AXHAEAV?$vector@UStudent@@V?$allocator@UStudent@@@std@@@std@@@ZHV12@@std@@@std@@YAAEAPEAV?$tuple@P6AXHAEAV?$vector@UStudent@@V?$allocator@UStudent@@@std@@@std@@@ZHV12@@0@AEAPEAV10@@Z
	??$forward@AEAPEAV_Facet_base@std@@@std@@YAAEAPEAV_Facet_base@0@AEAPEAV10@@Z
	??$forward@AEAUStudent@@@std@@YAAEAUStudent@@AEAU1@@Z
	??$forward@AEAV?$vector@UStudent@@V?$allocator@UStudent@@@std@@@std@@@std@@YAAEAV?$vector@UStudent@@V?$allocator@UStudent@@@std@@@0@AEAV10@@Z
	??$forward@AEBH@std@@YAAEBHAEBH@Z
	??$forward@AEBQEAD@std@@YAAEBQEADAEBQEAD@Z
	??$forward@AEBUStudent@@@std@@YAAEBUStudent@@AEBU1@@Z
	??$forward@AEBV?$allocator@H@std@@@std@@YAAEBV?$allocator@H@0@AEBV10@@Z
	??$forward@PEAH@std@@YA$$QEAPEAHAEAPEAH@Z
	??$forward@PEAU_Container_base12@std@@@std@@YA$$QEAPEAU_Container_base12@0@AEAPEAU10@@Z
	??$forward@PEAV?$tuple@P6AXHAEAV?$vector@UStudent@@V?$allocator@UStudent@@@std@@@std@@@ZHV12@@std@@@std@@YA$$QEAPEAV?$tuple@P6AXHAEAV?$vector@UStudent@@V?$allocator@UStudent@@@std@@@std@@@ZHV12@@0@AEAPEAV10@@Z
	??$forward@U?$default_delete@V?$tuple@P6AXHAEAV?$vector@UStudent@@V?$allocator@UStudent@@@std@@@std@@@ZHV12@@std@@@std@@@std@@YA$$QEAU?$default_delete@V?$tuple@P6AXHAEAV?$vector@UStudent@@V?$allocator@UStudent@@@std@@@std@@@ZHV12@@std@@@0@AEAU10@@Z
	??$forward@UStudent@@@std@@YA$$QEAUStudent@@AEAU1@@Z
	??$forward@V?$allocator@D@std@@@std@@YA$$QEAV?$allocator@D@0@AEAV10@@Z
	??$forward@V?$allocator@H@std@@@std@@YA$$QEAV?$allocator@H@0@AEAV10@@Z
	??$forward@V?$allocator@UStudent@@@std@@@std@@YA$$QEAV?$allocator@UStudent@@@0@AEAV10@@Z
	??$get@$00P6AXHAEAV?$vector@UStudent@@V?$allocator@UStudent@@@std@@@std@@@ZHV12@@std@@YAAEAHAEAV?$tuple@P6AXHAEAV?$vector@UStudent@@V?$allocator@UStudent@@@std@@@std@@@ZHV12@@0@@Z
	??$get@$01P6AXHAEAV?$vector@UStudent@@V?$allocator@UStudent@@@std@@@std@@@ZHV12@@std@@YAAEAV?$vector@UStudent@@V?$allocator@UStudent@@@std@@@0@AEAV?$tuple@P6AXHAEAV?$vector@UStudent@@V?$allocator@UStudent@@@std@@@std@@@ZHV12@@0@@Z
	??$get@$0A@P6AXHAEAV?$vector@UStudent@@V?$allocator@UStudent@@@std@@@std@@@ZHV12@@std@@YAAEAP6AXHAEAV?$vector@UStudent@@V?$allocator@UStudent@@@std@@@0@@ZAEAV?$tuple@P6AXHAEAV?$vector@UStudent@@V?$allocator@UStudent@@@std@@@std@@@ZHV12@@0@@Z
	??$getline@DU?$char_traits@D@std@@V?$allocator@D@2@@std@@YAAEAV?$basic_istream@DU?$char_traits@D@std@@@0@$$QEAV10@AEAV?$basic_string@DU?$char_traits@D@std@@V?$allocator@D@2@@0@D@Z
	??$getline@DU?$char_traits@D@std@@V?$allocator@D@2@@std@@YAAEAV?$basic_istream@DU?$char_traits@D@std@@@0@AEAV10@AEAV?$basic_string@DU?$char_traits@D@std@@V?$allocator@D@2@@0@@Z
	??$getline@DU?$char_traits@D@std@@V?$allocator@D@2@@std@@YAAEAV?$basic_istream@DU?$char_traits@D@std@@@0@AEAV10@AEAV?$basic_string@DU?$char_traits@D@std@@V?$allocator@D@2@@0@D@Z
	??$invoke@P6AXHAEAV?$vector@UStudent@@V?$allocator@UStudent@@@std@@@std@@@ZHV12@@std@@YAX$$QEAP6AXHAEAV?$vector@UStudent@@V?$allocator@UStudent@@@std@@@0@@Z$$QEAH$$QEAV10@@Z
	??$iter_swap@PEAUStudent@@PEAU1@@std@@YAXPEAUStudent@@0@Z
	??$make_unique@V?$tuple@P6AXHAEAV?$vector@UStudent@@V?$allocator@UStudent@@@std@@@std@@@ZHV12@@std@@A6AXHAEAV?$vector@UStudent@@V?$allocator@UStudent@@@std@@@2@@ZAEAHAEAV32@$0A@@std@@YA?AV?$unique_ptr@V?$tuple@P6AXHAEAV?$vector@UStudent@@V?$allocator@UStudent@@@std@@@std@@@ZHV12@@std@@U?$default_delete@V?$tuple@P6AXHAEAV?$vector@UStudent@@V?$allocator@UStudent@@@std@@@std@@@ZHV12@@std@@@2@@0@A6AXHAEAV?$vector@UStudent@@V?$allocator@UStudent@@@std@@@0@@ZAEAH0@Z
	??$max@PEAD@std@@YAAEBQEADAEBQEAD0@Z
	??$max@_K@std@@YAAEB_KAEB_K0@Z
	??$min@_K@std@@YAAEB_KAEB_K0@Z
	??$move@AEAH@std@@YA$$QEAHAEAH@Z
	??$move@AEAP6AXHAEAV?$vector@UStudent@@V?$allocator@UStudent@@@std@@@std@@@Z@std@@YA$$QEAP6AXHAEAV?$vector@UStudent@@V?$allocator@UStudent@@@std@@@0@@ZAEAP6AXH0@Z@Z
	??$move@AEAUStudent@@@std@@YA$$QEAUStudent@@AEAU1@@Z
	??$move@AEAV?$allocator@D@std@@@std@@YA$$QEAV?$allocator@D@0@AEAV10@@Z
	??$move@AEAV?$allocator@H@std@@@std@@YA$$QEAV?$allocator@H@0@AEAV10@@Z
	??$move@AEAV?$basic_istream@DU?$char_traits@D@std@@@std@@@std@@YA$$QEAV?$basic_istream@DU?$char_traits@D@std@@@0@AEAV10@@Z
	??$move@AEAV?$vector@UStudent@@V?$allocator@UStudent@@@std@@@std@@@std@@YA$$QEAV?$vector@UStudent@@V?$allocator@UStudent@@@std@@@0@AEAV10@@Z
	??$sleep_for@_JU?$ratio@$00$00@std@@@this_thread@std@@YAXAEBV?$duration@_JU?$ratio@$00$00@std@@@chrono@1@@Z
	??$sleep_until@Usteady_clock@chrono@std@@V?$duration@_JU?$ratio@$00$0DLJKMKAA@@std@@@23@@this_thread@std@@YAXAEBV?$time_point@Usteady_clock@chrono@std@@V?$duration@_JU?$ratio@$00$0DLJKMKAA@@std@@@23@@chrono@1@@Z
	??$swap@UStudent@@$0A@@std@@YAXAEAUStudent@@0@Z
	??$use_facet@V?$codecvt@DDU_Mbstatet@@@std@@@std@@YAAEBV?$codecvt@DDU_Mbstatet@@@0@AEBVlocale@0@@Z
	??$use_facet@V?$ctype@D@std@@@std@@YAAEBV?$ctype@D@0@AEBVlocale@0@@Z
	??0?$_Container_proxy_ptr12@V?$allocator@U_Container_proxy@std@@@std@@@std@@QEAA@AEAV?$allocator@U_Container_proxy@std@@@1@AEAU_Container_base12@1@@Z
	??0?$_String_val@U?$_Simple_types@D@std@@@std@@QEAA@XZ
	??0?$_Uninitialized_backout_al@V?$allocator@H@std@@@std@@QEAA@PEAHAEAV?$allocator@H@1@@Z
	??0?$_Uninitialized_backout_al@V?$allocator@UStudent@@@std@@@std@@QEAA@PEAUStudent@@AEAV?$allocator@UStudent@@@1@@Z
	??0?$_Vector_const_iterator@V?$_Vector_val@U?$_Simple_types@UStudent@@@std@@@std@@@std@@QEAA@PEAUStudent@@PEBU_Container_base12@1@@Z
	??0?$_Vector_iterator@V?$_Vector_val@U?$_Simple_types@UStudent@@@std@@@std@@@std@@QEAA@PEAUStudent@@PEBU_Container_base12@1@@Z
	??0?$_Vector_val@U?$_Simple_types@H@std@@@std@@QEAA@PEAH00@Z
	??0?$_Vector_val@U?$_Simple_types@H@std@@@std@@QEAA@XZ
	??0?$_Vector_val@U?$_Simple_types@UStudent@@@std@@@std@@QEAA@XZ
	??0?$_Vector_val@U?$_Simple_types@V?$basic_string@DU?$char_traits@D@std@@V?$allocator@D@2@@std@@@std@@@std@@QEAA@XZ
	??0?$_Vector_val@U?$_Simple_types@V?$vector@MV?$allocator@M@std@@@std@@@std@@@std@@QEAA@XZ
	??0?$allocator@D@std@@QEAA@XZ
	??0?$allocator@H@std@@QEAA@XZ
	??0?$allocator@V?$basic_string@DU?$char_traits@D@std@@V?$allocator@D@2@@std@@@std@@QEAA@XZ
	??0?$allocator@V?$vector@MV?$allocator@M@std@@@std@@@std@@QEAA@XZ
	??0?$basic_filebuf@DU?$char_traits@D@std@@@std@@QEAA@XZ
	??0?$basic_ifstream@DU?$char_traits@D@std@@@std@@QEAA@AEBV?$basic_string@DU?$char_traits@D@std@@V?$allocator@D@2@@1@HH@Z
	??0?$basic_ifstream@DU?$char_traits@D@std@@@std@@QEAA@PEBDHH@Z
	??0?$basic_string@DU?$char_traits@D@std@@V?$allocator@D@2@@std@@QEAA@$$QEAV01@@Z
	??0?$basic_string@DU?$char_traits@D@std@@V?$allocator@D@2@@std@@QEAA@AEBV01@@Z
	??0?$basic_string@DU?$char_traits@D@std@@V?$allocator@D@2@@std@@QEAA@XZ
	??0?$basic_stringbuf@DU?$char_traits@D@std@@V?$allocator@D@2@@std@@QEAA@AEBV?$basic_string@DU?$char_traits@D@std@@V?$allocator@D@2@@1@H@Z
	??0?$basic_stringstream@DU?$char_traits@D@std@@V?$allocator@D@2@@std@@QEAA@AEBV?$basic_string@DU?$char_traits@D@std@@V?$allocator@D@2@@1@H@Z
	??0?$fpos@U_Mbstatet@@@std@@QEAA@U_Mbstatet@@_J@Z
	??0?$fpos@U_Mbstatet@@@std@@QEAA@_J@Z
	??0?$initializer_list@H@std@@QEAA@PEBH0@Z
	??0?$time_point@Usteady_clock@chrono@std@@V?$duration@_JU?$ratio@$00$0DLJKMKAA@@std@@@23@@chrono@std@@QEAA@AEBV?$duration@_JU?$ratio@$00$0DLJKMKAA@@std@@@12@@Z
	??0?$time_point@Usystem_clock@chrono@std@@V?$duration@_JU?$ratio@$00$0JIJGIA@@std@@@23@@chrono@std@@QEAA@AEBV?$duration@_JU?$ratio@$00$0JIJGIA@@std@@@12@@Z
	??0?$vector@HV?$allocator@H@std@@@std@@QEAA@$$QEAV01@@Z
	??0?$vector@HV?$allocator@H@std@@@std@@QEAA@AEBV01@@Z
	??0?$vector@HV?$allocator@H@std@@@std@@QEAA@V?$initializer_list@H@1@AEBV?$allocator@H@1@@Z
	??0?$vector@UStudent@@V?$allocator@UStudent@@@std@@@std@@QEAA@AEBV01@@Z
	??0?$vector@V?$basic_string@DU?$char_traits@D@std@@V?$allocator@D@2@@std@@V?$allocator@V?$basic_string@DU?$char_traits@D@std@@V?$allocator@D@2@@std@@@2@@std@@QEAA@XZ
	??0?$vector@V?$vector@MV?$allocator@M@std@@@std@@V?$allocator@V?$vector@MV?$allocator@M@std@@@std@@@2@@std@@QEAA@XZ
	??0Student@@QEAA@$$QEAU0@@Z
	??0Student@@QEAA@AEBU0@@Z
	??0Student@@QEAA@XZ
	??0_Basic_container_proxy_ptr12@std@@IEAA@XZ
	??0_Bxty@?$_String_val@U?$_Simple_types@D@std@@@std@@QEAA@XZ
	??0_Container_base12@std@@QEAA@XZ
	??0_Container_proxy@std@@QEAA@PEAU_Container_base12@1@@Z
	??0_Iterator_base12@std@@QEAA@XZ
	??0_Sentry_base@?$basic_istream@DU?$char_traits@D@std@@@std@@QEAA@AEAV12@@Z
	??0_Sentry_base@?$basic_ostream@DU?$char_traits@D@std@@@std@@QEAA@AEAV12@@Z
	??0bad_alloc@std@@AEAA@QEBD@Z
	??0bad_alloc@std@@QEAA@AEBV01@@Z
	??0bad_array_new_length@std@@QEAA@AEBV01@@Z
	??0bad_array_new_length@std@@QEAA@XZ
	??0bad_cast@std@@QEAA@AEBV01@@Z
	??0bad_cast@std@@QEAA@XZ
	??0exception@std@@QEAA@AEBV01@@Z
	??0exception@std@@QEAA@QEBDH@Z
	??0sentry@?$basic_istream@DU?$char_traits@D@std@@@std@@QEAA@AEAV12@_N@Z
	??0sentry@?$basic_ostream@DU?$char_traits@D@std@@@std@@QEAA@AEAV12@@Z
	??1?$_Compressed_pair@V?$allocator@D@std@@V?$_String_val@U?$_Simple_types@D@std@@@2@$00@std@@QEAA@XZ
	??1?$_Container_proxy_ptr12@V?$allocator@U_Container_proxy@std@@@std@@@std@@QEAA@XZ
	??1?$_String_val@U?$_Simple_types@D@std@@@std@@QEAA@XZ
	??1?$_Tidy_guard@V?$vector@HV?$allocator@H@std@@@std@@@std@@QEAA@XZ
	??1?$_Tidy_guard@V?$vector@UStudent@@V?$allocator@UStudent@@@std@@@std@@@std@@QEAA@XZ
	??1?$_Tuple_val@V?$vector@UStudent@@V?$allocator@UStudent@@@std@@@std@@@std@@QEAA@XZ
	??1?$_Uninitialized_backout_al@V?$allocator@H@std@@@std@@QEAA@XZ
	??1?$_Uninitialized_backout_al@V?$allocator@UStudent@@@std@@@std@@QEAA@XZ
	??1?$_Vector_const_iterator@V?$_Vector_val@U?$_Simple_types@UStudent@@@std@@@std@@@std@@QEAA@XZ
	??1?$_Vector_iterator@V?$_Vector_val@U?$_Simple_types@UStudent@@@std@@@std@@@std@@QEAA@XZ
	??1?$basic_filebuf@DU?$char_traits@D@std@@@std@@UEAA@XZ
	??1?$basic_ifstream@DU?$char_traits@D@std@@@std@@UEAA@XZ
	??1?$basic_string@DU?$char_traits@D@std@@V?$allocator@D@2@@std@@QEAA@XZ
	??1?$basic_stringbuf@DU?$char_traits@D@std@@V?$allocator@D@2@@std@@UEAA@XZ
	??1?$basic_stringstream@DU?$char_traits@D@std@@V?$allocator@D@2@@std@@UEAA@XZ
	??1?$tuple@HV?$vector@UStudent@@V?$allocator@UStudent@@@std@@@std@@@std@@QEAA@XZ
	??1?$tuple@P6AXHAEAV?$vector@UStudent@@V?$allocator@UStudent@@@std@@@std@@@ZHV12@@std@@QEAA@XZ
	??1?$tuple@V?$vector@UStudent@@V?$allocator@UStudent@@@std@@@std@@@std@@QEAA@XZ
	??1?$unique_ptr@V?$tuple@P6AXHAEAV?$vector@UStudent@@V?$allocator@UStudent@@@std@@@std@@@ZHV12@@std@@U?$default_delete@V?$tuple@P6AXHAEAV?$vector@UStudent@@V?$allocator@UStudent@@@std@@@std@@@ZHV12@@std@@@2@@std@@QEAA@XZ
	??1?$unique_ptr@V_Facet_base@std@@U?$default_delete@V_Facet_base@std@@@2@@std@@QEAA@XZ
	??1?$vector@HV?$allocator@H@std@@@std@@QEAA@XZ
	??1?$vector@MV?$allocator@M@std@@@std@@QEAA@XZ
	??1?$vector@UStudent@@V?$allocator@UStudent@@@std@@@std@@QEAA@XZ
	??1?$vector@V?$basic_string@DU?$char_traits@D@std@@V?$allocator@D@2@@std@@V?$allocator@V?$basic_string@DU?$char_traits@D@std@@V?$allocator@D@2@@std@@@2@@std@@QEAA@XZ
	??1?$vector@V?$vector@MV?$allocator@M@std@@@std@@V?$allocator@V?$vector@MV?$allocator@M@std@@@std@@@2@@std@@QEAA@XZ
	??1Student@@QEAA@XZ
	??1_Bxty@?$_String_val@U?$_Simple_types@D@std@@@std@@QEAA@XZ
	??1_Iterator_base12@std@@QEAA@XZ
	??1_Sentry_base@?$basic_istream@DU?$char_traits@D@std@@@std@@QEAA@XZ
	??1_Sentry_base@?$basic_ostream@DU?$char_traits@D@std@@@std@@QEAA@XZ
	??1bad_alloc@std@@UEAA@XZ
	??1bad_array_new_length@std@@UEAA@XZ
	??1bad_cast@std@@UEAA@XZ
	??1exception@std@@UEAA@XZ
	??1locale@std@@QEAA@XZ
	??1sentry@?$basic_istream@DU?$char_traits@D@std@@@std@@QEAA@XZ
	??1sentry@?$basic_ostream@DU?$char_traits@D@std@@@std@@QEAA@XZ
	??1thread@std@@QEAA@XZ
	??2@YAPEAX_KPEAX@Z
	??4?$basic_string@DU?$char_traits@D@std@@V?$allocator@D@2@@std@@QEAAAEAV01@$$QEAV01@@Z
	??4?$basic_string@DU?$char_traits@D@std@@V?$allocator@D@2@@std@@QEAAAEAV01@AEBV01@@Z
	??4?$vector@HV?$allocator@H@std@@@std@@QEAAAEAV01@$$QEAV01@@Z
	??4Student@@QEAAAEAU0@$$QEAU0@@Z
	??A?$vector@HV?$allocator@H@std@@@std@@QEAAAEAH_K@Z
	??B?$fpos@U_Mbstatet@@@std@@QEBA_JXZ
	??Bsentry@?$basic_istream@DU?$char_traits@D@std@@@std@@QEBA_NXZ
	??Bsentry@?$basic_ostream@DU?$char_traits@D@std@@@std@@QEBA_NXZ
	??D?$unique_ptr@V?$tuple@P6AXHAEAV?$vector@UStudent@@V?$allocator@UStudent@@@std@@@std@@@ZHV12@@std@@U?$default_delete@V?$tuple@P6AXHAEAV?$vector@UStudent@@V?$allocator@UStudent@@@std@@@std@@@ZHV12@@std@@@2@@std@@QEBAAEAV?$tuple@P6AXHAEAV?$vector@UStudent@@V?$allocator@UStudent@@@std@@@std@@@ZHV12@@1@XZ
	??R<lambda_319d5e083f45f90dcdce5dce53cbb275>@@QEBA@QEADQEBD_KD@Z
	??R<lambda_66f57f934f28d61049862f64df852ff0>@@QEBA@QEAD_KQEBD@Z
	??R?$default_delete@V?$tuple@P6AXHAEAV?$vector@UStudent@@V?$allocator@UStudent@@@std@@@std@@@ZHV12@@std@@@std@@QEBAXPEAV?$tuple@P6AXHAEAV?$vector@UStudent@@V?$allocator@UStudent@@@std@@@std@@@ZHV12@@1@@Z
	??R?$default_delete@V_Facet_base@std@@@std@@QEBAXPEAV_Facet_base@1@@Z
	??Y?$basic_string@DU?$char_traits@D@std@@V?$allocator@D@2@@std@@QEAAAEAV01@D@Z
	??Y?$duration@_JU?$ratio@$00$0DLJKMKAA@@std@@@chrono@std@@QEAAAEAV012@AEBV012@@Z
	??Y?$time_point@Usteady_clock@chrono@std@@V?$duration@_JU?$ratio@$00$0DLJKMKAA@@std@@@23@@chrono@std@@QEAAAEAV012@AEBV?$duration@_JU?$ratio@$00$0DLJKMKAA@@std@@@12@@Z
	??Z?$duration@_JU?$ratio@$00$0DLJKMKAA@@std@@@chrono@std@@QEAAAEAV012@AEBV012@@Z
	??_D?$basic_ifstream@DU?$char_traits@D@std@@@std@@QEAAXXZ
	??_D?$basic_stringstream@DU?$char_traits@D@std@@V?$allocator@D@2@@std@@QEAAXXZ
	?_Adjust_manually_vector_aligned@std@@YAXAEAPEAXAEA_K@Z
	?_Adopt@_Iterator_base12@std@@QEAAXPEBU_Container_base12@2@@Z
	?_Adopt_locked@_Iterator_base12@std@@AEAAXPEBU_Container_base12@2@@Z
	?_Adopt_unlocked@_Iterator_base12@std@@AEAAXPEBU_Container_base12@2@@Z
	?_Allocate@_Default_allocate_traits@std@@SAPEAX_K@Z
	?_Buy_nonzero@?$vector@HV?$allocator@H@std@@@std@@AEAAX_K@Z
	?_Buy_raw@?$vector@HV?$allocator@H@std@@@std@@AEAAX_K@Z
	?_Buy_raw@?$vector@UStudent@@V?$allocator@UStudent@@@std@@@std@@AEAAX_K@Z
	?_Calculate_growth@?$basic_string@DU?$char_traits@D@std@@V?$allocator@D@2@@std@@AEBA_K_K@Z
	?_Calculate_growth@?$basic_string@DU?$char_traits@D@std@@V?$allocator@D@2@@std@@CA_K_K00@Z
	?_Calculate_growth@?$vector@UStudent@@V?$allocator@UStudent@@@std@@@std@@AEBA_K_K@Z
	?_Change_array@?$vector@UStudent@@V?$allocator@UStudent@@@std@@@std@@AEAAXQEAUStudent@@_K1@Z
	?_Check_offset@?$_String_val@U?$_Simple_types@D@std@@@std@@QEBAX_K@Z
	?_Clamp_suffix_size@?$_String_val@U?$_Simple_types@D@std@@@std@@QEBA_K_K0@Z
	?_Construct_lv_contents@?$basic_string@DU?$char_traits@D@std@@V?$allocator@D@2@@std@@AEAAXAEBV12@@Z
	?_Copy_assign@?$basic_string@DU?$char_traits@D@std@@V?$allocator@D@2@@std@@AEAAXAEBV12@U?$integral_constant@_N$0A@@2@@Z
	?_Destroy@?$vector@HV?$allocator@H@std@@@std@@AEAAXPEAH0@Z
	?_Destroy@?$vector@MV?$allocator@M@std@@@std@@AEAAXPEAM0@Z
	?_Destroy@?$vector@UStudent@@V?$allocator@UStudent@@@std@@@std@@AEAAXPEAUStudent@@0@Z
	?_Destroy@?$vector@V?$basic_string@DU?$char_traits@D@std@@V?$allocator@D@2@@std@@V?$allocator@V?$basic_string@DU?$char_traits@D@std@@V?$allocator@D@2@@std@@@2@@std@@AEAAXPEAV?$basic_string@DU?$char_traits@D@std@@V?$allocator@D@2@@2@0@Z
	?_Destroy@?$vector@V?$vector@MV?$allocator@M@std@@@std@@V?$allocator@V?$vector@MV?$allocator@M@std@@@std@@@2@@std@@AEAAXPEAV?$vector@MV?$allocator@M@std@@@2@0@Z
	?_Endwrite@?$basic_filebuf@DU?$char_traits@D@std@@@std@@IEAA_NXZ
	?_Eos@?$basic_string@DU?$char_traits@D@std@@V?$allocator@D@2@@std@@AEAAX_K@Z
	?_Erase_noexcept@?$basic_string@DU?$char_traits@D@std@@V?$allocator@D@2@@std@@AEAAAEAV12@_K_K@Z
	?_Get_first@?$_Compressed_pair@U?$default_delete@V?$tuple@P6AXHAEAV?$vector@UStudent@@V?$allocator@UStudent@@@std@@@std@@@ZHV12@@std@@@std@@PEAV?$tuple@P6AXHAEAV?$vector@UStudent@@V?$allocator@UStudent@@@std@@@std@@@ZHV12@@2@$00@std@@QEAAAEAU?$default_delete@V?$tuple@P6AXHAEAV?$vector@UStudent@@V?$allocator@UStudent@@@std@@@std@@@ZHV12@@std@@@2@XZ
	?_Get_first@?$_Compressed_pair@U?$default_delete@V_Facet_base@std@@@std@@PEAV_Facet_base@2@$00@std@@QEAAAEAU?$default_delete@V_Facet_base@std@@@2@XZ
	?_Get_first@?$_Compressed_pair@V?$allocator@D@std@@V?$_String_val@U?$_Simple_types@D@std@@@2@$00@std@@QEAAAEAV?$allocator@D@2@XZ
	?_Get_first@?$_Compressed_pair@V?$allocator@D@std@@V?$_String_val@U?$_Simple_types@D@std@@@2@$00@std@@QEBAAEBV?$allocator@D@2@XZ
	?_Get_first@?$_Compressed_pair@V?$allocator@H@std@@V?$_Vector_val@U?$_Simple_types@H@std@@@2@$00@std@@QEAAAEAV?$allocator@H@2@XZ
	?_Get_first@?$_Compressed_pair@V?$allocator@H@std@@V?$_Vector_val@U?$_Simple_types@H@std@@@2@$00@std@@QEBAAEBV?$allocator@H@2@XZ
	?_Get_first@?$_Compressed_pair@V?$allocator@M@std@@V?$_Vector_val@U?$_Simple_types@M@std@@@2@$00@std@@QEAAAEAV?$allocator@M@2@XZ
	?_Get_first@?$_Compressed_pair@V?$allocator@UStudent@@@std@@V?$_Vector_val@U?$_Simple_types@UStudent@@@std@@@2@$00@std@@QEAAAEAV?$allocator@UStudent@@@2@XZ
	?_Get_first@?$_Compressed_pair@V?$allocator@UStudent@@@std@@V?$_Vector_val@U?$_Simple_types@UStudent@@@std@@@2@$00@std@@QEBAAEBV?$allocator@UStudent@@@2@XZ
	?_Get_first@?$_Compressed_pair@V?$allocator@V?$basic_string@DU?$char_traits@D@std@@V?$allocator@D@2@@std@@@std@@V?$_Vector_val@U?$_Simple_types@V?$basic_string@DU?$char_traits@D@std@@V?$allocator@D@2@@std@@@std@@@2@$00@std@@QEAAAEAV?$allocator@V?$basic_string@DU?$char_traits@D@std@@V?$allocator@D@2@@std@@@2@XZ
	?_Get_first@?$_Compressed_pair@V?$allocator@V?$vector@MV?$allocator@M@std@@@std@@@std@@V?$_Vector_val@U?$_Simple_types@V?$vector@MV?$allocator@M@std@@@std@@@std@@@2@$00@std@@QEAAAEAV?$allocator@V?$vector@MV?$allocator@M@std@@@std@@@2@XZ
	?_Getal@?$basic_string@DU?$char_traits@D@std@@V?$allocator@D@2@@std@@AEAAAEAV?$allocator@D@2@XZ
	?_Getal@?$basic_string@DU?$char_traits@D@std@@V?$allocator@D@2@@std@@AEBAAEBV?$allocator@D@2@XZ
	?_Getal@?$vector@HV?$allocator@H@std@@@std@@AEAAAEAV?$allocator@H@2@XZ
	?_Getal@?$vector@HV?$allocator@H@std@@@std@@AEBAAEBV?$allocator@H@2@XZ
	?_Getal@?$vector@MV?$allocator@M@std@@@std@@AEAAAEAV?$allocator@M@2@XZ
	?_Getal@?$vector@UStudent@@V?$allocator@UStudent@@@std@@@std@@AEAAAEAV?$allocator@UStudent@@@2@XZ
	?_Getal@?$vector@UStudent@@V?$allocator@UStudent@@@std@@@std@@AEBAAEBV?$allocator@UStudent@@@2@XZ
	?_Getal@?$vector@V?$basic_string@DU?$char_traits@D@std@@V?$allocator@D@2@@std@@V?$allocator@V?$basic_string@DU?$char_traits@D@std@@V?$allocator@D@2@@std@@@2@@std@@AEAAAEAV?$allocator@V?$basic_string@DU?$char_traits@D@std@@V?$allocator@D@2@@std@@@2@XZ
	?_Getal@?$vector@V?$vector@MV?$allocator@M@std@@@std@@V?$allocator@V?$vector@MV?$allocator@M@std@@@std@@@2@@std@@AEAAAEAV?$allocator@V?$vector@MV?$allocator@M@std@@@std@@@2@XZ
	?_Getcont@_Iterator_base12@std@@QEBAPEBU_Container_base12@2@XZ
	?_Getfacet@locale@std@@QEBAPEBVfacet@12@_K@Z
	?_Getstate@?$basic_stringbuf@DU?$char_traits@D@std@@V?$allocator@D@2@@std@@CAHH@Z
	?_Init@?$basic_filebuf@DU?$char_traits@D@std@@@std@@IEAAXPEAU_iobuf@@W4_Initfl@12@@Z
	?_Init@?$basic_stringbuf@DU?$char_traits@D@std@@V?$allocator@D@2@@std@@IEAAXPEBD_KH@Z
	?_Initcvt@?$basic_filebuf@DU?$char_traits@D@std@@@std@@IEAAXAEBV?$codecvt@DDU_Mbstatet@@@2@@Z
	?_Large_string_engaged@?$_String_val@U?$_Simple_types@D@std@@@std@@QEBA_NXZ
	?_Lock@?$basic_filebuf@DU?$char_traits@D@std@@@std@@UEAAXXZ
	?_Memcpy_val_from@?$basic_string@DU?$char_traits@D@std@@V?$allocator@D@2@@std@@AEAAXAEBV12@@Z
	?_Move_assign@?$basic_string@DU?$char_traits@D@std@@V?$allocator@D@2@@std@@AEAAXAEAV12@U_Equal_allocators@2@@Z
	?_Move_assign@?$vector@HV?$allocator@H@std@@@std@@AEAAXAEAV12@U_Equal_allocators@2@@Z
	?_Myptr@?$_String_val@U?$_Simple_types@D@std@@@std@@QEAAPEADXZ
	?_Myptr@?$_String_val@U?$_Simple_types@D@std@@@std@@QEBAPEBDXZ
	?_Orphan_all@_Container_base12@std@@QEAAXXZ
	?_Orphan_all_locked_v3@_Container_base12@std@@AEAAXXZ
	?_Orphan_all_unlocked_v3@_Container_base12@std@@AEAAXXZ
	?_Orphan_me_locked_v3@_Iterator_base12@std@@AEAAXXZ
	?_Orphan_me_unlocked_v3@_Iterator_base12@std@@AEAAXXZ
	?_Orphan_range@?$vector@UStudent@@V?$allocator@UStudent@@@std@@@std@@AEBAXPEAUStudent@@0@Z
	?_Orphan_range_locked@?$vector@UStudent@@V?$allocator@UStudent@@@std@@@std@@AEBAXPEAUStudent@@0@Z
	?_Orphan_range_unlocked@?$vector@UStudent@@V?$allocator@UStudent@@@std@@@std@@AEBAXPEAUStudent@@0@Z
	?_Release@?$_Uninitialized_backout_al@V?$allocator@H@std@@@std@@QEAAPEAHXZ
	?_Release@?$_Uninitialized_backout_al@V?$allocator@UStudent@@@std@@@std@@QEAAPEAUStudent@@XZ
	?_Release@_Basic_container_proxy_ptr12@std@@QEAAXXZ
	?_Reset_back@?$basic_filebuf@DU?$char_traits@D@std@@@std@@AEAAXXZ
	?_Set_back@?$basic_filebuf@DU?$char_traits@D@std@@@std@@AEAAXXZ
	?_Swap_proxy_and_iterators@?$basic_string@DU?$char_traits@D@std@@V?$allocator@D@2@@std@@AEAAXAEAV12@@Z
	?_Swap_proxy_and_iterators@_Container_base12@std@@QEAAXAEAU12@@Z
	?_Swap_proxy_and_iterators_locked@_Container_base12@std@@AEAAXAEAU12@@Z
	?_Swap_proxy_and_iterators_unlocked@_Container_base12@std@@AEAAXAEAU12@@Z
	?_Take_contents@?$_Vector_val@U?$_Simple_types@H@std@@@std@@QEAAXAEAV12@@Z
	?_Take_contents@?$basic_string@DU?$char_traits@D@std@@V?$allocator@D@2@@std@@AEAAXAEAV12@@Z
	?_Throw_bad_array_new_length@std@@YAXXZ
	?_Throw_bad_cast@std@@YAXXZ
	?_Tidy@?$basic_stringbuf@DU?$char_traits@D@std@@V?$allocator@D@2@@std@@IEAAXXZ
	?_Tidy@?$vector@HV?$allocator@H@std@@@std@@AEAAXXZ
	?_Tidy@?$vector@MV?$allocator@M@std@@@std@@AEAAXXZ
	?_Tidy@?$vector@UStudent@@V?$allocator@UStudent@@@std@@@std@@AEAAXXZ
	?_Tidy@?$vector@V?$basic_string@DU?$char_traits@D@std@@V?$allocator@D@2@@std@@V?$allocator@V?$basic_string@DU?$char_traits@D@std@@V?$allocator@D@2@@std@@@2@@std@@AEAAXXZ
	?_Tidy@?$vector@V?$vector@MV?$allocator@M@std@@@std@@V?$allocator@V?$vector@MV?$allocator@M@std@@@std@@@2@@std@@AEAAXXZ
	?_Tidy_deallocate@?$basic_string@DU?$char_traits@D@std@@V?$allocator@D@2@@std@@AEAAXXZ
	?_Tidy_init@?$basic_string@DU?$char_traits@D@std@@V?$allocator@D@2@@std@@AEAAXXZ
	?_Umove@?$vector@UStudent@@V?$allocator@UStudent@@@std@@@std@@AEAAPEAUStudent@@PEAU3@00@Z
	?_Umove_if_noexcept1@?$vector@UStudent@@V?$allocator@UStudent@@@std@@@std@@AEAAXPEAUStudent@@00U?$integral_constant@_N$00@2@@Z
	?_Umove_if_noexcept@?$vector@UStudent@@V?$allocator@UStudent@@@std@@@std@@AEAAXPEAUStudent@@00@Z
	?_Unlock@?$basic_filebuf@DU?$char_traits@D@std@@@std@@UEAAXXZ
	?_Unwrapped@?$_Vector_iterator@V?$_Vector_val@U?$_Simple_types@UStudent@@@std@@@std@@@std@@QEBAPEAUStudent@@XZ
	?_Verify_range@std@@YAXAEBV?$_Vector_const_iterator@V?$_Vector_val@U?$_Simple_types@UStudent@@@std@@@std@@@1@0@Z
	?_Xlen_string@std@@YAXXZ
	?_Xlength@?$vector@HV?$allocator@H@std@@@std@@CAXXZ
	?_Xlength@?$vector@UStudent@@V?$allocator@UStudent@@@std@@@std@@CAXXZ
	?_Xran@?$_String_val@U?$_Simple_types@D@std@@@std@@SAXXZ
	?__empty_global_delete@@YAXPEAX@Z
	?__empty_global_delete@@YAXPEAX_K@Z
	?addData@ScoreManager@@QEAAHXZ
	?allocate@?$allocator@D@std@@QEAAPEAD_K@Z
	?allocate@?$allocator@H@std@@QEAAPEAH_K@Z
	?allocate@?$allocator@UStudent@@@std@@QEAAPEAUStudent@@_K@Z
	?allocate@?$allocator@U_Container_proxy@std@@@std@@QEAAPEAU_Container_proxy@2@_K@Z
	?assign@?$_Narrow_char_traits@DH@std@@SAXAEADAEBD@Z
	?assign@?$basic_string@DU?$char_traits@D@std@@V?$allocator@D@2@@std@@QEAAAEAV12@QEBD_K@Z
	?begin@?$initializer_list@H@std@@QEBAPEBHXZ
	?begin@?$vector@UStudent@@V?$allocator@UStudent@@@std@@@std@@QEAA?AV?$_Vector_iterator@V?$_Vector_val@U?$_Simple_types@UStudent@@@std@@@std@@@2@XZ
	?c_str@?$basic_string@DU?$char_traits@D@std@@V?$allocator@D@2@@std@@QEBAPEBDXZ
	?capacity@?$vector@UStudent@@V?$allocator@UStudent@@@std@@@std@@QEBA_KXZ
	?close@?$basic_filebuf@DU?$char_traits@D@std@@@std@@QEAAPEAV12@XZ
	?close@?$basic_ifstream@DU?$char_traits@D@std@@@std@@QEAAXXZ
	?copy@?$_Char_traits@DH@std@@SAPEADQEADQEBD_K@Z
	?count@?$duration@NU?$ratio@$00$00@std@@@chrono@std@@QEBANXZ
	?count@?$duration@NU?$ratio@$00$0DLJKMKAA@@std@@@chrono@std@@QEBANXZ
	?count@?$duration@_JU?$ratio@$00$00@std@@@chrono@std@@QEBA_JXZ
	?count@?$duration@_JU?$ratio@$00$0DLJKMKAA@@std@@@chrono@std@@QEBA_JXZ
	?count@?$duration@_JU?$ratio@$00$0JIJGIA@@std@@@chrono@std@@QEBA_JXZ
	?data@?$basic_string@DU?$char_traits@D@std@@V?$allocator@D@2@@std@@QEBAPEBDXZ
	?deallocate@?$_Default_allocator_traits@V?$allocator@U_Container_proxy@std@@@std@@@std@@SAXAEAV?$allocator@U_Container_proxy@std@@@2@QEAU_Container_proxy@2@_K@Z
	?deallocate@?$allocator@D@std@@QEAAXQEAD_K@Z
	?deallocate@?$allocator@H@std@@QEAAXQEAH_K@Z
	?deallocate@?$allocator@M@std@@QEAAXQEAM_K@Z
	?deallocate@?$allocator@UStudent@@@std@@QEAAXQEAUStudent@@_K@Z
	?deallocate@?$allocator@V?$basic_string@DU?$char_traits@D@std@@V?$allocator@D@2@@std@@@std@@QEAAXQEAV?$basic_string@DU?$char_traits@D@std@@V?$allocator@D@2@@2@_K@Z
	?deallocate@?$allocator@V?$vector@MV?$allocator@M@std@@@std@@@std@@QEAAXQEAV?$vector@MV?$allocator@M@std@@@2@_K@Z
	?deleteData@ScoreManager@@QEAAHXZ
	?end@?$initializer_list@H@std@@QEBAPEBHXZ
	?end@?$vector@UStudent@@V?$allocator@UStudent@@@std@@@std@@QEAA?AV?$_Vector_iterator@V?$_Vector_val@U?$_Simple_types@UStudent@@@std@@@std@@@2@XZ
	?eof@?$_Narrow_char_traits@DH@std@@SAHXZ
	?eq@?$_Narrow_char_traits@DH@std@@SA_NAEBD0@Z
	?eq_int_type@?$_Narrow_char_traits@DH@std@@SA_NAEBH0@Z
	?erase@?$basic_string@DU?$char_traits@D@std@@V?$allocator@D@2@@std@@QEAAAEAV12@_K0@Z
	?erase@?$basic_string@DU?$char_traits@D@std@@V?$allocator@D@2@@std@@QEAAAEAV12@_K@Z
	?findMaxscore@DataStruct@@QEAAXAEAV?$vector@UStudent@@V?$allocator@UStudent@@@std@@@std@@@Z
	?findMinscore@DataStruct@@QEAAXAEAV?$vector@UStudent@@V?$allocator@UStudent@@@std@@@std@@@Z
	?findScoreByName@DataStruct@@QEAAXAEAV?$vector@UStudent@@V?$allocator@UStudent@@@std@@@std@@@Z
	?front@?$basic_string@DU?$char_traits@D@std@@V?$allocator@D@2@@std@@QEAAAEADXZ
	?get@?$unique_ptr@V?$tuple@P6AXHAEAV?$vector@UStudent@@V?$allocator@UStudent@@@std@@@std@@@ZHV12@@std@@U?$default_delete@V?$tuple@P6AXHAEAV?$vector@UStudent@@V?$allocator@UStudent@@@std@@@std@@@ZHV12@@std@@@2@@std@@QEBAPEAV?$tuple@P6AXHAEAV?$vector@UStudent@@V?$allocator@UStudent@@@std@@@std@@@ZHV12@@2@XZ
	?getAverage@DataStruct@@QEAAXAEAV?$vector@UStudent@@V?$allocator@UStudent@@@std@@@std@@@Z
	?getData@ScoreManager@@QEAA?AV?$vector@UStudent@@V?$allocator@UStudent@@@std@@@std@@XZ
	?get_allocator@?$basic_string@DU?$char_traits@D@std@@V?$allocator@D@2@@std@@QEBA?AV?$allocator@D@2@XZ
	?get_deleter@?$unique_ptr@V?$tuple@P6AXHAEAV?$vector@UStudent@@V?$allocator@UStudent@@@std@@@std@@@ZHV12@@std@@U?$default_delete@V?$tuple@P6AXHAEAV?$vector@UStudent@@V?$allocator@UStudent@@@std@@@std@@@ZHV12@@std@@@2@@std@@QEAAAEAU?$default_delete@V?$tuple@P6AXHAEAV?$vector@UStudent@@V?$allocator@UStudent@@@std@@@std@@@ZHV12@@std@@@2@XZ
	?imbue@?$basic_filebuf@DU?$char_traits@D@std@@@std@@MEAAXAEBVlocale@2@@Z
	?is_open@?$basic_filebuf@DU?$char_traits@D@std@@@std@@QEBA_NXZ
	?is_open@?$basic_ifstream@DU?$char_traits@D@std@@@std@@QEBA_NXZ
	?join@thread@std@@QEAAXXZ
	?joinable@thread@std@@QEBA_NXZ
	?length@?$_Narrow_char_traits@DH@std@@SA_KQEBD@Z
	?max@?$numeric_limits@_J@std@@SA_JXZ
	?max_size@?$_Default_allocator_traits@V?$allocator@D@std@@@std@@SA_KAEBV?$allocator@D@2@@Z
	?max_size@?$_Default_allocator_traits@V?$allocator@H@std@@@std@@SA_KAEBV?$allocator@H@2@@Z
	?max_size@?$_Default_allocator_traits@V?$allocator@UStudent@@@std@@@std@@SA_KAEBV?$allocator@UStudent@@@2@@Z
	?max_size@?$basic_string@DU?$char_traits@D@std@@V?$allocator@D@2@@std@@QEBA_KXZ
	?max_size@?$vector@HV?$allocator@H@std@@@std@@QEBA_KXZ
	?max_size@?$vector@UStudent@@V?$allocator@UStudent@@@std@@@std@@QEBA_KXZ
	?modifyData@ScoreManager@@QEAAHXZ
	?move@?$_Char_traits@DH@std@@SAPEADQEADQEBD_K@Z
	?not_eof@?$_Narrow_char_traits@DH@std@@SAHAEBH@Z
	?now@steady_clock@chrono@std@@SA?AV?$time_point@Usteady_clock@chrono@std@@V?$duration@_JU?$ratio@$00$0DLJKMKAA@@std@@@23@@23@XZ
	?now@system_clock@chrono@std@@SA?AV?$time_point@Usystem_clock@chrono@std@@V?$duration@_JU?$ratio@$00$0JIJGIA@@std@@@23@@23@XZ
	?open@?$basic_filebuf@DU?$char_traits@D@std@@@std@@QEAAPEAV12@PEBDHH@Z
	?overflow@?$basic_filebuf@DU?$char_traits@D@std@@@std@@MEAAHH@Z
	?overflow@?$basic_stringbuf@DU?$char_traits@D@std@@V?$allocator@D@2@@std@@MEAAHH@Z
	?pbackfail@?$basic_filebuf@DU?$char_traits@D@std@@@std@@MEAAHH@Z
	?pbackfail@?$basic_stringbuf@DU?$char_traits@D@std@@V?$allocator@D@2@@std@@MEAAHH@Z
	?pointer_to@?$pointer_traits@PEAD@std@@SAPEADAEAD@Z
	?push_back@?$basic_string@DU?$char_traits@D@std@@V?$allocator@D@2@@std@@QEAAXD@Z
	?push_back@?$vector@UStudent@@V?$allocator@UStudent@@@std@@@std@@QEAAXAEBUStudent@@@Z
	?readFile@ScoreManager@@QEAAHXZ
	?release@?$unique_ptr@V?$tuple@P6AXHAEAV?$vector@UStudent@@V?$allocator@UStudent@@@std@@@std@@@ZHV12@@std@@U?$default_delete@V?$tuple@P6AXHAEAV?$vector@UStudent@@V?$allocator@UStudent@@@std@@@std@@@ZHV12@@std@@@2@@std@@QEAAPEAV?$tuple@P6AXHAEAV?$vector@UStudent@@V?$allocator@UStudent@@@std@@@std@@@ZHV12@@2@XZ
	?release@?$unique_ptr@V_Facet_base@std@@U?$default_delete@V_Facet_base@std@@@2@@std@@QEAAPEAV_Facet_base@2@XZ
	?seekoff@?$basic_filebuf@DU?$char_traits@D@std@@@std@@MEAA?AV?$fpos@U_Mbstatet@@@2@_JHH@Z
	?seekoff@?$basic_stringbuf@DU?$char_traits@D@std@@V?$allocator@D@2@@std@@MEAA?AV?$fpos@U_Mbstatet@@@2@_JHH@Z
	?seekpos@?$basic_filebuf@DU?$char_traits@D@std@@@std@@MEAA?AV?$fpos@U_Mbstatet@@@2@V32@H@Z
	?seekpos@?$basic_stringbuf@DU?$char_traits@D@std@@V?$allocator@D@2@@std@@MEAA?AV?$fpos@U_Mbstatet@@@2@V32@H@Z
	?select_on_container_copy_construction@?$_Default_allocator_traits@V?$allocator@D@std@@@std@@SA?AV?$allocator@D@2@AEBV32@@Z
	?select_on_container_copy_construction@?$_Default_allocator_traits@V?$allocator@H@std@@@std@@SA?AV?$allocator@H@2@AEBV32@@Z
	?select_on_container_copy_construction@?$_Default_allocator_traits@V?$allocator@UStudent@@@std@@@std@@SA?AV?$allocator@UStudent@@@2@AEBV32@@Z
	?setbuf@?$basic_filebuf@DU?$char_traits@D@std@@@std@@MEAAPEAV?$basic_streambuf@DU?$char_traits@D@std@@@2@PEAD_J@Z
	?size@?$basic_string@DU?$char_traits@D@std@@V?$allocator@D@2@@std@@QEBA_KXZ
	?sort@DataStruct@@QEAAXAEAV?$vector@UStudent@@V?$allocator@UStudent@@@std@@@std@@@Z
	?state@?$fpos@U_Mbstatet@@@std@@QEBA?AU_Mbstatet@@XZ
	?stoi@std@@YAHAEBV?$basic_string@DU?$char_traits@D@std@@V?$allocator@D@2@@1@PEA_KH@Z
	?sync@?$basic_filebuf@DU?$char_traits@D@std@@@std@@MEAAHXZ
	?time_since_epoch@?$time_point@Usteady_clock@chrono@std@@V?$duration@_JU?$ratio@$00$0DLJKMKAA@@std@@@23@@chrono@std@@QEBA?AV?$duration@_JU?$ratio@$00$0DLJKMKAA@@std@@@23@XZ
	?time_since_epoch@?$time_point@Usystem_clock@chrono@std@@V?$duration@_JU?$ratio@$00$0JIJGIA@@std@@@23@@chrono@std@@QEBA?AV?$duration@_JU?$ratio@$00$0JIJGIA@@std@@@23@XZ
	?timer@@YAXHAEAV?$vector@UStudent@@V?$allocator@UStudent@@@std@@@std@@@Z
	?to_char_type@?$_Narrow_char_traits@DH@std@@SADAEBH@Z
	?to_int_type@?$_Narrow_char_traits@DH@std@@SAHAEBD@Z
	?uflow@?$basic_filebuf@DU?$char_traits@D@std@@@std@@MEAAHXZ
	?underflow@?$basic_filebuf@DU?$char_traits@D@std@@@std@@MEAAHXZ
	?underflow@?$basic_stringbuf@DU?$char_traits@D@std@@V?$allocator@D@2@@std@@MEAAHXZ
	?what@exception@std@@UEBAPEBDXZ
	?writeFile@ScoreManager@@QEAAHXZ
	?xsgetn@?$basic_filebuf@DU?$char_traits@D@std@@@std@@MEAA_JPEAD_J@Z
	?xsputn@?$basic_filebuf@DU?$char_traits@D@std@@@std@@MEAA_JPEBD_J@Z
	TimeWork
